; Function Attrs: mustprogress uwtable
define void @_ZNK4pkpy4Dict6valuesEv(ptr dead_on_unwind noalias nonnull writable sret(%"struct.pkpy::Tuple") align 8 %0, ptr nocapture noundef nonnull readonly align 8 dereferenceable(48) %1) local_unnamed_addr #7 align 2 personality ptr @__gxx_personality_v0 {
  %3 = alloca %"class.std::__cxx11::basic_string", align 8
  %4 = alloca %"class.std::__cxx11::basic_string", align 8
  %5 = alloca %"class.std::__cxx11::basic_string", align 8
  %6 = alloca %"class.std::__cxx11::basic_string", align 8
  %7 = alloca %"class.std::allocator", align 1
  %8 = alloca %"class.std::__cxx11::basic_string", align 8
  %9 = getelementptr inbounds i8, ptr %1, i64 16
  %10 = load i32, ptr %9, align 8
  tail call void @_ZN4pkpy5TupleC1Ei(ptr noundef nonnull align 8 dereferenceable(36) %0, i32 noundef %10)
  %11 = getelementptr inbounds i8, ptr %1, i64 24
  %.01827 = load i32, ptr %11, align 8
  %.not28 = icmp eq i32 %.01827, -1
  br i1 %.not28, label %._crit_edge, label %.lr.ph

.lr.ph:                                           ; preds = %2
  %12 = getelementptr inbounds i8, ptr %1, i64 32
  %13 = getelementptr inbounds i8, ptr %1, i64 40
  br label %14

14:                                               ; preds = %.lr.ph, %14
  %indvars.iv = phi i64 [ 0, %.lr.ph ], [ %indvars.iv.next, %14 ]
  %.01830 = phi i32 [ %.01827, %.lr.ph ], [ %.018, %14 ]
  %15 = load ptr, ptr %12, align 8
  %16 = sext i32 %.01830 to i64
  %17 = getelementptr inbounds %"struct.pkpy::Dict::Item", ptr %15, i64 %16, i32 1
  %18 = load ptr, ptr %17, align 8
  %indvars.iv.next = add nuw nsw i64 %indvars.iv, 1
  %19 = load ptr, ptr %0, align 8
  %20 = getelementptr inbounds ptr, ptr %19, i64 %indvars.iv
  store ptr %18, ptr %20, align 8
  %21 = load ptr, ptr %13, align 8
  %22 = getelementptr inbounds %"struct.pkpy::Dict::ItemNode", ptr %21, i64 %16, i32 1
  %.018 = load i32, ptr %22, align 4
  %.not = icmp eq i32 %.018, -1
  br i1 %.not, label %._crit_edge.loopexit, label %14, !llvm.loop !10

._crit_edge.loopexit:                             ; preds = %14
  %23 = trunc nuw i64 %indvars.iv.next to i32
  br label %._crit_edge

._crit_edge:                                      ; preds = %._crit_edge.loopexit, %2
  %.017.lcssa = phi i32 [ 0, %2 ], [ %23, %._crit_edge.loopexit ]
  %24 = load i32, ptr %9, align 8
  %25 = icmp eq i32 %.017.lcssa, %24
  br i1 %25, label %48, label %26

26:                                               ; preds = %._crit_edge
  %27 = tail call ptr @__cxa_allocate_exception(i64 16) #16
  call void @_ZNSaIcEC1Ev(ptr noundef nonnull align 1 dereferenceable(1) %7) #16
  invoke void @_ZNSt7__cxx1112basic_stringIcSt11char_traitsIcESaIcEEC2IS3_EEPKcRKS3_(ptr noundef nonnull align 8 dereferenceable(32) %6, ptr noundef nonnull @.str.1, ptr noundef nonnull align 1 dereferenceable(1) %7)
          to label %28 unwind label %.thread

28:                                               ; preds = %26
  %29 = invoke noundef nonnull align 8 dereferenceable(32) ptr @_ZNSt7__cxx1112basic_stringIcSt11char_traitsIcESaIcEE6insertEmPKc(ptr noundef nonnull align 8 dereferenceable(32) %6, i64 noundef 0, ptr noundef nonnull @.str)
          to label %30 unwind label %36

30:                                               ; preds = %28
  call void @_ZNSt7__cxx1112basic_stringIcSt11char_traitsIcESaIcEEC1EOS4_(ptr noundef nonnull align 8 dereferenceable(32) %5, ptr noundef nonnull align 8 dereferenceable(32) %29) #16
  call void @_ZNSt7__cxx119to_stringEi(ptr dead_on_unwind nonnull writable sret(%"class.std::__cxx11::basic_string") align 8 %8, i32 noundef 157) #16
  invoke void @_ZStplIcSt11char_traitsIcESaIcEENSt7__cxx1112basic_stringIT_T0_T1_EEOS8_S9_(ptr dead_on_unwind nonnull writable sret(%"class.std::__cxx11::basic_string") align 8 %4, ptr noundef nonnull align 8 dereferenceable(32) %5, ptr noundef nonnull align 8 dereferenceable(32) %8)
          to label %31 unwind label %38

31:                                               ; preds = %30
  %32 = invoke noundef nonnull align 8 dereferenceable(32) ptr @_ZNSt7__cxx1112basic_stringIcSt11char_traitsIcESaIcEE6appendEPKc(ptr noundef nonnull align 8 dereferenceable(32) %4, ptr noundef nonnull @.str.2)
          to label %33 unwind label %40

33:                                               ; preds = %31
  call void @_ZNSt7__cxx1112basic_stringIcSt11char_traitsIcESaIcEEC1EOS4_(ptr noundef nonnull align 8 dereferenceable(32) %3, ptr noundef nonnull align 8 dereferenceable(32) %32) #16
  invoke void @_ZNSt13runtime_errorC1ERKNSt7__cxx1112basic_stringIcSt11char_traitsIcESaIcEEE(ptr noundef nonnull align 8 dereferenceable(16) %27, ptr noundef nonnull align 8 dereferenceable(32) %3)
          to label %34 unwind label %42

34:                                               ; preds = %33
  invoke void @__cxa_throw(ptr nonnull %27, ptr nonnull @_ZTISt13runtime_error, ptr nonnull @_ZNSt13runtime_errorD1Ev) #17
          to label %50 unwind label %42

.thread:                                          ; preds = %26
  %35 = landingpad { ptr, i32 }
          cleanup
  call void @_ZNSaIcED1Ev(ptr noundef nonnull align 1 dereferenceable(1) %7) #16
  br label %47

36:                                               ; preds = %28
  %37 = landingpad { ptr, i32 }
          cleanup
  br label %46

38:                                               ; preds = %30
  %39 = landingpad { ptr, i32 }
          cleanup
  br label %45

40:                                               ; preds = %31
  %41 = landingpad { ptr, i32 }
          cleanup
  br label %44

42:                                               ; preds = %34, %33
  %.0 = phi i1 [ false, %34 ], [ true, %33 ]
  %43 = landingpad { ptr, i32 }
          cleanup
  call void @_ZNSt7__cxx1112basic_stringIcSt11char_traitsIcESaIcEED1Ev(ptr noundef nonnull align 8 dereferenceable(32) %3) #16
  br label %44

44:                                               ; preds = %42, %40
  %.pn = phi { ptr, i32 } [ %43, %42 ], [ %41, %40 ]
  %.1 = phi i1 [ %.0, %42 ], [ true, %40 ]
  call void @_ZNSt7__cxx1112basic_stringIcSt11char_traitsIcESaIcEED1Ev(ptr noundef nonnull align 8 dereferenceable(32) %4) #16
  br label %45

45:                                               ; preds = %44, %38
  %.pn.pn = phi { ptr, i32 } [ %.pn, %44 ], [ %39, %38 ]
  %.2 = phi i1 [ %.1, %44 ], [ true, %38 ]
  call void @_ZNSt7__cxx1112basic_stringIcSt11char_traitsIcESaIcEED1Ev(ptr noundef nonnull align 8 dereferenceable(32) %8) #16
  call void @_ZNSt7__cxx1112basic_stringIcSt11char_traitsIcESaIcEED1Ev(ptr noundef nonnull align 8 dereferenceable(32) %5) #16
  br label %46

46:                                               ; preds = %36, %45
  %.pn.pn.pn = phi { ptr, i32 } [ %.pn.pn, %45 ], [ %37, %36 ]
  %.3 = phi i1 [ %.2, %45 ], [ true, %36 ]
  call void @_ZNSt7__cxx1112basic_stringIcSt11char_traitsIcESaIcEED1Ev(ptr noundef nonnull align 8 dereferenceable(32) %6) #16
  call void @_ZNSaIcED1Ev(ptr noundef nonnull align 1 dereferenceable(1) %7) #16
  br i1 %.3, label %47, label %49

47:                                               ; preds = %.thread, %46
  %.pn.pn.pn.pn26 = phi { ptr, i32 } [ %35, %.thread ], [ %.pn.pn.pn, %46 ]
  call void @__cxa_free_exception(ptr %27) #16
  br label %49

48:                                               ; preds = %._crit_edge
  ret void

49:                                               ; preds = %46, %47
  %.pn.pn.pn.pn25 = phi { ptr, i32 } [ %.pn.pn.pn, %46 ], [ %.pn.pn.pn.pn26, %47 ]
  call void @_ZN4pkpy5TupleD1Ev(ptr noundef nonnull align 8 dereferenceable(36) %0) #16
  resume { ptr, i32 } %.pn.pn.pn.pn25

50:                                               ; preds = %34
  unreachable
}